target datalayout = "e-m:e-p270:32:32-p271:32:32-p272:64:64-i64:64-i128:128-f80:128-n8:16:32:64-S128"
target triple = "x86_64-pc-linux-gnu"

%"class.icu_77::RBBITableBuilder" = type <{ ptr, ptr, ptr, ptr, ptr, ptr, i32, [4 x i8] }>
%"class.icu_77::UVector" = type { %"class.icu_77::UObject", i32, i32, ptr, ptr, ptr }
%"class.icu_77::UObject" = type { ptr }

; Function Attrs: inlinehint mustprogress nounwind uwtable
define linkonce_odr noundef i32 @_ZNK6icu_777UVector4sizeEv(ptr noundef nonnull align 8 dereferenceable(40) %0) #1 comdat align 2 {
  %2 = alloca ptr, align 8
  store ptr %0, ptr %2, align 8, !tbaa !31
  %3 = load ptr, ptr %2, align 8
  %4 = getelementptr inbounds nuw %"class.icu_77::UVector", ptr %3, i32 0, i32 1
  %5 = load i32, ptr %4, align 8, !tbaa !32
  ret i32 %5
}

; Function Attrs: inlinehint mustprogress nounwind uwtable
define internal noundef signext i8 @_ZL9U_FAILURE10UErrorCode(i32 noundef %0) #1 {
  %2 = alloca i32, align 4
  store i32 %0, ptr %2, align 4, !tbaa !24
  %3 = load i32, ptr %2, align 4, !tbaa !24
  %4 = icmp sgt i32 %3, 0
  %5 = zext i1 %4 to i8
  ret i8 %5
}

; Function Attrs: mustprogress uwtable
define void @_ZN6icu_7716RBBITableBuilder9sortedAddEPPNS_7UVectorEi(ptr noundef nonnull align 8 dereferenceable(52) %0, ptr noundef %1, i32 noundef %2) #0 align 2 personality ptr @__gxx_personality_v0 {
  %4 = alloca ptr, align 8
  %5 = alloca ptr, align 8
  %6 = alloca i32, align 4
  %7 = alloca i32, align 4
  %8 = alloca ptr, align 8
  %9 = alloca i1, align 1
  %10 = alloca ptr, align 8
  %11 = alloca i32, align 4
  %12 = alloca i32, align 4
  %13 = alloca ptr, align 8
  %14 = alloca i32, align 4
  %15 = alloca i32, align 4
  store ptr %0, ptr %4, align 8, !tbaa !3
  store ptr %1, ptr %5, align 8, !tbaa !115
  store i32 %2, ptr %6, align 4, !tbaa !26
  %16 = load ptr, ptr %4, align 8
  call void @llvm.lifetime.start.p0(i64 4, ptr %7) #11
  %17 = load ptr, ptr %5, align 8, !tbaa !115
  %18 = load ptr, ptr %17, align 8, !tbaa !31
  %19 = icmp eq ptr %18, null
  br i1 %19, label %20, label %38

20:                                               ; preds = %3
  %21 = call noundef ptr @_ZN6icu_777UMemorynwEm(i64 noundef 40) #11
  %22 = icmp eq ptr %21, null
  store i1 false, ptr %9, align 1
  br i1 %22, label %27, label %23

23:                                               ; preds = %20
  store ptr %21, ptr %8, align 8
  store i1 true, ptr %9, align 1
  %24 = getelementptr inbounds nuw %"class.icu_77::RBBITableBuilder", ptr %16, i32 0, i32 2
  %25 = load ptr, ptr %24, align 8, !tbaa !19
  invoke void @_ZN6icu_777UVectorC1ER10UErrorCode(ptr noundef nonnull align 8 dereferenceable(40) %21, ptr noundef nonnull align 4 dereferenceable(4) %25)
          to label %26 unwind label %30

26:                                               ; preds = %23
  br label %27

27:                                               ; preds = %26, %20
  %28 = phi ptr [ %21, %26 ], [ null, %20 ]
  %29 = load ptr, ptr %5, align 8, !tbaa !115
  store ptr %28, ptr %29, align 8, !tbaa !31
  br label %38

30:                                               ; preds = %23
  %31 = landingpad { ptr, i32 }
          cleanup
  %32 = extractvalue { ptr, i32 } %31, 0
  store ptr %32, ptr %10, align 8
  %33 = extractvalue { ptr, i32 } %31, 1
  store i32 %33, ptr %11, align 4
  %34 = load i1, ptr %9, align 1
  br i1 %34, label %35, label %37

35:                                               ; preds = %30
  %36 = load ptr, ptr %8, align 8
  call void @_ZN6icu_777UMemorydlEPv(ptr noundef %36) #11
  br label %37

37:                                               ; preds = %35, %30
  call void @llvm.lifetime.end.p0(i64 4, ptr %7) #11
  br label %88

38:                                               ; preds = %27, %3
  %39 = load ptr, ptr %5, align 8, !tbaa !115
  %40 = load ptr, ptr %39, align 8, !tbaa !31
  %41 = icmp eq ptr %40, null
  br i1 %41, label %48, label %42

42:                                               ; preds = %38
  %43 = getelementptr inbounds nuw %"class.icu_77::RBBITableBuilder", ptr %16, i32 0, i32 2
  %44 = load ptr, ptr %43, align 8, !tbaa !19
  %45 = load i32, ptr %44, align 4, !tbaa !24
  %46 = call noundef signext i8 @_ZL9U_FAILURE10UErrorCode(i32 noundef %45)
  %47 = icmp ne i8 %46, 0
  br i1 %47, label %48, label %49

48:                                               ; preds = %42, %38
  store i32 1, ptr %12, align 4
  br label %85

49:                                               ; preds = %42
  call void @llvm.lifetime.start.p0(i64 8, ptr %13) #11
  %50 = load ptr, ptr %5, align 8, !tbaa !115
  %51 = load ptr, ptr %50, align 8, !tbaa !31
  store ptr %51, ptr %13, align 8, !tbaa !31
  call void @llvm.lifetime.start.p0(i64 4, ptr %14) #11
  %52 = load ptr, ptr %13, align 8, !tbaa !31
  %53 = call noundef i32 @_ZNK6icu_777UVector4sizeEv(ptr noundef nonnull align 8 dereferenceable(40) %52)
  store i32 %53, ptr %14, align 4, !tbaa !26
  store i32 0, ptr %7, align 4, !tbaa !26
  br label %54

54:                                               ; preds = %75, %49
  %55 = load i32, ptr %7, align 4, !tbaa !26
  %56 = load i32, ptr %14, align 4, !tbaa !26
  %57 = icmp slt i32 %55, %56
  br i1 %57, label %58, label %78

58:                                               ; preds = %54
  call void @llvm.lifetime.start.p0(i64 4, ptr %15) #11
  %59 = load ptr, ptr %13, align 8, !tbaa !31
  %60 = load i32, ptr %7, align 4, !tbaa !26
  %61 = call noundef i32 @_ZNK6icu_777UVector10elementAtiEi(ptr noundef nonnull align 8 dereferenceable(40) %59, i32 noundef %60)
  store i32 %61, ptr %15, align 4, !tbaa !26
  %62 = load i32, ptr %15, align 4, !tbaa !26
  %63 = load i32, ptr %6, align 4, !tbaa !26
  %64 = icmp eq i32 %62, %63
  br i1 %64, label %65, label %66

65:                                               ; preds = %58
  store i32 1, ptr %12, align 4
  br label %72

66:                                               ; preds = %58
  %67 = load i32, ptr %15, align 4, !tbaa !26
  %68 = load i32, ptr %6, align 4, !tbaa !26
  %69 = icmp sgt i32 %67, %68
  br i1 %69, label %70, label %71

70:                                               ; preds = %66
  store i32 2, ptr %12, align 4
  br label %72

71:                                               ; preds = %66
  store i32 0, ptr %12, align 4
  br label %72

72:                                               ; preds = %71, %70, %65
  call void @llvm.lifetime.end.p0(i64 4, ptr %15) #11
  %73 = load i32, ptr %12, align 4
  switch i32 %73, label %84 [
    i32 0, label %74
    i32 2, label %78
  ]

74:                                               ; preds = %72
  br label %75

75:                                               ; preds = %74
  %76 = load i32, ptr %7, align 4, !tbaa !26
  %77 = add nsw i32 %76, 1
  store i32 %77, ptr %7, align 4, !tbaa !26
  br label %54, !llvm.loop !117

78:                                               ; preds = %72, %54
  %79 = load ptr, ptr %13, align 8, !tbaa !31
  %80 = load i32, ptr %6, align 4, !tbaa !26
  %81 = load i32, ptr %7, align 4, !tbaa !26
  %82 = getelementptr inbounds nuw %"class.icu_77::RBBITableBuilder", ptr %16, i32 0, i32 2
  %83 = load ptr, ptr %82, align 8, !tbaa !19
  call void @_ZN6icu_777UVector15insertElementAtEiiR10UErrorCode(ptr noundef nonnull align 8 dereferenceable(40) %79, i32 noundef %80, i32 noundef %81, ptr noundef nonnull align 4 dereferenceable(4) %83)
  store i32 0, ptr %12, align 4
  br label %84

84:                                               ; preds = %78, %72
  call void @llvm.lifetime.end.p0(i64 4, ptr %14) #11
  call void @llvm.lifetime.end.p0(i64 8, ptr %13) #11
  br label %85

85:                                               ; preds = %84, %48
  call void @llvm.lifetime.end.p0(i64 4, ptr %7) #11
  %86 = load i32, ptr %12, align 4
  switch i32 %86, label %93 [
    i32 0, label %87
    i32 1, label %87
  ]

87:                                               ; preds = %85, %85
  ret void

88:                                               ; preds = %37
  %89 = load ptr, ptr %10, align 8
  %90 = load i32, ptr %11, align 4
  %91 = insertvalue { ptr, i32 } poison, ptr %89, 0
  %92 = insertvalue { ptr, i32 } %91, i32 %90, 1
  resume { ptr, i32 } %92

93:                                               ; preds = %85
  unreachable
}