; Function Attrs: mustprogress uwtable
define void @_ZN6icu_7716RBBITableBuilder9sortedAddEPPNS_7UVectorEi(ptr noundef nonnull readonly align 8 captures(none) dereferenceable(52) %0, ptr noundef captures(none) %1, i32 noundef %2) local_unnamed_addr #0 align 2 personality ptr @__gxx_personality_v0 {
  %4 = load ptr, ptr %1, align 8, !tbaa !105
  %5 = icmp eq ptr %4, null
  br i1 %5, label %6, label %.thread

6:                                                ; preds = %3
  %7 = tail call noundef ptr @_ZN6icu_777UMemorynwEm(i64 noundef 40) #13
  %8 = icmp eq ptr %7, null
  br i1 %8, label %.thread26, label %9

.thread26:                                        ; preds = %6
  store ptr null, ptr %1, align 8, !tbaa !105
  br label %.loopexit

9:                                                ; preds = %6
  %10 = getelementptr inbounds nuw i8, ptr %0, i64 16
  %11 = load ptr, ptr %10, align 8, !tbaa !15
  invoke void @_ZN6icu_777UVectorC1ER10UErrorCode(ptr noundef nonnull align 8 dereferenceable(40) %7, ptr noundef nonnull align 4 dereferenceable(4) %11)
          to label %14 unwind label %12

12:                                               ; preds = %9
  %13 = landingpad { ptr, i32 }
          cleanup
  tail call void @_ZN6icu_777UMemorydlEPv(ptr noundef nonnull %7) #13
  resume { ptr, i32 } %13

14:                                               ; preds = %9
  store ptr %7, ptr %1, align 8, !tbaa !105
  br label %.thread

.thread:                                          ; preds = %3, %14
  %15 = phi ptr [ %7, %14 ], [ %4, %3 ]
  %16 = getelementptr inbounds nuw i8, ptr %0, i64 16
  %17 = load ptr, ptr %16, align 8, !tbaa !15
  %18 = load i32, ptr %17, align 4, !tbaa !17
  %19 = icmp slt i32 %18, 1
  br i1 %19, label %20, label %.loopexit

20:                                               ; preds = %.thread
  %21 = getelementptr inbounds nuw i8, ptr %15, i64 8
  %22 = load i32, ptr %21, align 8, !tbaa !20
  %23 = icmp sgt i32 %22, 0
  br i1 %23, label %.lr.ph, label %._crit_edge

.lr.ph:                                           ; preds = %20, %27
  %.028 = phi i32 [ %28, %27 ], [ 0, %20 ]
  %24 = tail call noundef i32 @_ZNK6icu_777UVector10elementAtiEi(ptr noundef nonnull align 8 dereferenceable(40) %15, i32 noundef %.028)
  %25 = icmp eq i32 %24, %2
  %26 = icmp sgt i32 %24, %2
  %. = select i1 %26, i32 2, i32 0
  %.022 = select i1 %25, i32 1, i32 %.
  switch i32 %.022, label %.loopexit [
    i32 0, label %27
    i32 2, label %._crit_edge.loopexit
  ]

27:                                               ; preds = %.lr.ph
  %28 = add nuw nsw i32 %.028, 1
  %exitcond.not = icmp eq i32 %28, %22
  br i1 %exitcond.not, label %._crit_edge.loopexit, label %.lr.ph, !llvm.loop !106

._crit_edge.loopexit:                             ; preds = %.lr.ph, %27
  %.0.lcssa.ph = phi i32 [ %22, %27 ], [ %.028, %.lr.ph ]
  %.pre = load ptr, ptr %16, align 8, !tbaa !15
  br label %._crit_edge

._crit_edge:                                      ; preds = %._crit_edge.loopexit, %20
  %29 = phi ptr [ %17, %20 ], [ %.pre, %._crit_edge.loopexit ]
  %.0.lcssa = phi i32 [ 0, %20 ], [ %.0.lcssa.ph, %._crit_edge.loopexit ]
  tail call void @_ZN6icu_777UVector15insertElementAtEiiR10UErrorCode(ptr noundef nonnull align 8 dereferenceable(40) %15, i32 noundef %2, i32 noundef %.0.lcssa, ptr noundef nonnull align 4 dereferenceable(4) %29)
  br label %.loopexit

.loopexit:                                        ; preds = %.lr.ph, %.thread26, %._crit_edge, %.thread
  ret void
}